target datalayout = "e-m:e-p270:32:32-p271:32:32-p272:64:64-i64:64-i128:128-f80:128-n8:16:32:64-S128"
target triple = "x86_64-pc-linux-gnu"

@stderr = external global ptr, align 8
@.str.8 = private unnamed_addr constant [8 x i8] c"%%ALIAS\00", align 1
@.str.9 = private unnamed_addr constant [9 x i8] c"%%Parent\00", align 1
@.str.10 = private unnamed_addr constant [13 x i8] c"%%DEPENDENCY\00", align 1
@.str.11 = private unnamed_addr constant [78 x i8] c"icupkg/ures_enumDependencies(%s table res=%08x)[%d].recurse(%s: %08x) failed\0A\00", align 1
@.str.12 = private unnamed_addr constant [74 x i8] c"icupkg/ures_enumDependencies(%s array res=%08x)[%d].recurse(%08x) failed\0A\00", align 1

; Function Attrs: inlinehint mustprogress nounwind uwtable
define internal noundef signext i8 @_ZL9U_FAILURE10UErrorCode(i32 noundef %0) #3 {
  %2 = alloca i32, align 4
  store i32 %0, ptr %2, align 4, !tbaa !11
  %3 = load i32, ptr %2, align 4, !tbaa !11
  %4 = icmp sgt i32 %3, 0
  %5 = zext i1 %4 to i8
  ret i8 %5
}

; Function Attrs: mustprogress uwtable
define internal noundef signext i8 @_ZN6icu_77L21ures_enumDependenciesEPKcPK12ResourceDatajS1_S1_iPFvPvS1_S1_ES5_PNS_7PackageEP10UErrorCode(ptr noundef %0, ptr noundef %1, i32 noundef %2, ptr noundef %3, ptr noundef %4, i32 noundef %5, ptr noundef %6, ptr noundef %7, ptr noundef %8, ptr noundef %9) #0 {
  %11 = alloca ptr, align 8
  %12 = alloca ptr, align 8
  %13 = alloca i32, align 4
  %14 = alloca ptr, align 8
  %15 = alloca ptr, align 8
  %16 = alloca i32, align 4
  %17 = alloca ptr, align 8
  %18 = alloca ptr, align 8
  %19 = alloca ptr, align 8
  %20 = alloca ptr, align 8
  %21 = alloca i8, align 1
  %22 = alloca i32, align 4
  %23 = alloca ptr, align 8
  %24 = alloca i32, align 4
  %25 = alloca ptr, align 8
  %26 = alloca i32, align 4
  %27 = alloca ptr, align 8
  %28 = alloca i32, align 4
  %29 = alloca i32, align 4
  %30 = alloca i32, align 4
  %31 = alloca ptr, align 8
  %32 = alloca i32, align 4
  %33 = alloca i32, align 4
  %34 = alloca i32, align 4
  %35 = alloca i32, align 4
  store ptr %0, ptr %11, align 8, !tbaa !31
  store ptr %1, ptr %12, align 8, !tbaa !66
  store i32 %2, ptr %13, align 4, !tbaa !18
  store ptr %3, ptr %14, align 8, !tbaa !31
  store ptr %4, ptr %15, align 8, !tbaa !31
  store i32 %5, ptr %16, align 4, !tbaa !18
  store ptr %6, ptr %17, align 8, !tbaa !10
  store ptr %7, ptr %18, align 8, !tbaa !10
  store ptr %8, ptr %19, align 8, !tbaa !3
  store ptr %9, ptr %20, align 8, !tbaa !10
  call void @llvm.lifetime.start.p0(i64 1, ptr %21) #11
  store i8 1, ptr %21, align 1, !tbaa !38
  %36 = load i32, ptr %13, align 4, !tbaa !18
  %37 = call i32 @res_getPublicType_77(i32 noundef %36)
  switch i32 %37, label %194 [
    i32 0, label %38
    i32 3, label %86
    i32 2, label %97
    i32 8, label %149
  ]

38:                                               ; preds = %10
  %39 = load i32, ptr %16, align 4, !tbaa !18
  %40 = icmp eq i32 %39, 1
  br i1 %40, label %41, label %63

41:                                               ; preds = %38
  %42 = load ptr, ptr %14, align 8, !tbaa !31
  %43 = icmp ne ptr %42, null
  br i1 %43, label %44, label %63

44:                                               ; preds = %41
  %45 = load ptr, ptr %14, align 8, !tbaa !31
  %46 = call i32 @strcmp(ptr noundef %45, ptr noundef @.str.8) #13
  %47 = icmp eq i32 0, %46
  br i1 %47, label %52, label %48

48:                                               ; preds = %44
  %49 = load ptr, ptr %14, align 8, !tbaa !31
  %50 = call i32 @strcmp(ptr noundef %49, ptr noundef @.str.9) #13
  %51 = icmp eq i32 0, %50
  br i1 %51, label %52, label %63

52:                                               ; preds = %48, %44
  store i8 0, ptr %21, align 1, !tbaa !38
  call void @llvm.lifetime.start.p0(i64 4, ptr %22) #11
  call void @llvm.lifetime.start.p0(i64 8, ptr %23) #11
  %53 = load ptr, ptr %12, align 8, !tbaa !66
  %54 = load i32, ptr %13, align 4, !tbaa !18
  %55 = call ptr @res_getStringNoTrace_77(ptr noundef %53, i32 noundef %54, ptr noundef %22)
  store ptr %55, ptr %23, align 8, !tbaa !68
  %56 = load ptr, ptr %11, align 8, !tbaa !31
  %57 = load i32, ptr %13, align 4, !tbaa !18
  %58 = load ptr, ptr %23, align 8, !tbaa !68
  %59 = load i32, ptr %22, align 4, !tbaa !18
  %60 = load ptr, ptr %17, align 8, !tbaa !10
  %61 = load ptr, ptr %18, align 8, !tbaa !10
  %62 = load ptr, ptr %20, align 8, !tbaa !10
  call void @_ZN6icu_77L10checkAliasEPKcjPKDsiaPFvPvS1_S1_ES4_P10UErrorCode(ptr noundef %56, i32 noundef %57, ptr noundef %58, i32 noundef %59, i8 noundef signext 1, ptr noundef %60, ptr noundef %61, ptr noundef %62)
  call void @llvm.lifetime.end.p0(i64 8, ptr %23) #11
  call void @llvm.lifetime.end.p0(i64 4, ptr %22) #11
  br label %85

63:                                               ; preds = %48, %41, %38
  %64 = load i32, ptr %16, align 4, !tbaa !18
  %65 = icmp eq i32 %64, 2
  br i1 %65, label %66, label %84

66:                                               ; preds = %63
  %67 = load ptr, ptr %15, align 8, !tbaa !31
  %68 = icmp ne ptr %67, null
  br i1 %68, label %69, label %84

69:                                               ; preds = %66
  %70 = load ptr, ptr %15, align 8, !tbaa !31
  %71 = call i32 @strcmp(ptr noundef %70, ptr noundef @.str.10) #13
  %72 = icmp eq i32 0, %71
  br i1 %72, label %73, label %84

73:                                               ; preds = %69
  call void @llvm.lifetime.start.p0(i64 4, ptr %24) #11
  call void @llvm.lifetime.start.p0(i64 8, ptr %25) #11
  %74 = load ptr, ptr %12, align 8, !tbaa !66
  %75 = load i32, ptr %13, align 4, !tbaa !18
  %76 = call ptr @res_getStringNoTrace_77(ptr noundef %74, i32 noundef %75, ptr noundef %24)
  store ptr %76, ptr %25, align 8, !tbaa !68
  %77 = load ptr, ptr %11, align 8, !tbaa !31
  %78 = load i32, ptr %13, align 4, !tbaa !18
  %79 = load ptr, ptr %25, align 8, !tbaa !68
  %80 = load i32, ptr %24, align 4, !tbaa !18
  %81 = load ptr, ptr %17, align 8, !tbaa !10
  %82 = load ptr, ptr %18, align 8, !tbaa !10
  %83 = load ptr, ptr %20, align 8, !tbaa !10
  call void @_ZN6icu_77L10checkAliasEPKcjPKDsiaPFvPvS1_S1_ES4_P10UErrorCode(ptr noundef %77, i32 noundef %78, ptr noundef %79, i32 noundef %80, i8 noundef signext 0, ptr noundef %81, ptr noundef %82, ptr noundef %83)
  call void @llvm.lifetime.end.p0(i64 8, ptr %25) #11
  call void @llvm.lifetime.end.p0(i64 4, ptr %24) #11
  br label %84

84:                                               ; preds = %73, %69, %66, %63
  br label %85

85:                                               ; preds = %84, %52
  br label %195

86:                                               ; preds = %10
  call void @llvm.lifetime.start.p0(i64 4, ptr %26) #11
  call void @llvm.lifetime.start.p0(i64 8, ptr %27) #11
  %87 = load ptr, ptr %12, align 8, !tbaa !66
  %88 = load i32, ptr %13, align 4, !tbaa !18
  %89 = call ptr @res_getAlias_77(ptr noundef %87, i32 noundef %88, ptr noundef %26)
  store ptr %89, ptr %27, align 8, !tbaa !68
  %90 = load ptr, ptr %11, align 8, !tbaa !31
  %91 = load i32, ptr %13, align 4, !tbaa !18
  %92 = load ptr, ptr %27, align 8, !tbaa !68
  %93 = load i32, ptr %26, align 4, !tbaa !18
  %94 = load ptr, ptr %17, align 8, !tbaa !10
  %95 = load ptr, ptr %18, align 8, !tbaa !10
  %96 = load ptr, ptr %20, align 8, !tbaa !10
  call void @_ZN6icu_77L10checkAliasEPKcjPKDsiaPFvPvS1_S1_ES4_P10UErrorCode(ptr noundef %90, i32 noundef %91, ptr noundef %92, i32 noundef %93, i8 noundef signext 1, ptr noundef %94, ptr noundef %95, ptr noundef %96)
  call void @llvm.lifetime.end.p0(i64 8, ptr %27) #11
  call void @llvm.lifetime.end.p0(i64 4, ptr %26) #11
  br label %195

97:                                               ; preds = %10
  call void @llvm.lifetime.start.p0(i64 4, ptr %28) #11
  %98 = load ptr, ptr %12, align 8, !tbaa !66
  %99 = load i32, ptr %13, align 4, !tbaa !18
  %100 = call i32 @res_countArrayItems_77(ptr noundef %98, i32 noundef %99)
  store i32 %100, ptr %28, align 4, !tbaa !18
  call void @llvm.lifetime.start.p0(i64 4, ptr %29) #11
  store i32 0, ptr %29, align 4, !tbaa !18
  br label %101

101:                                              ; preds = %144, %97
  %102 = load i32, ptr %29, align 4, !tbaa !18
  %103 = load i32, ptr %28, align 4, !tbaa !18
  %104 = icmp slt i32 %102, %103
  br i1 %104, label %106, label %105

105:                                              ; preds = %101
  store i32 3, ptr %30, align 4
  br label %147

106:                                              ; preds = %101
  call void @llvm.lifetime.start.p0(i64 8, ptr %31) #11
  call void @llvm.lifetime.start.p0(i64 4, ptr %32) #11
  %107 = load ptr, ptr %12, align 8, !tbaa !66
  %108 = load i32, ptr %13, align 4, !tbaa !18
  %109 = load i32, ptr %29, align 4, !tbaa !18
  %110 = call i32 @res_getTableItemByIndex_77(ptr noundef %107, i32 noundef %108, i32 noundef %109, ptr noundef %31)
  store i32 %110, ptr %32, align 4, !tbaa !18
  %111 = load ptr, ptr %11, align 8, !tbaa !31
  %112 = load ptr, ptr %12, align 8, !tbaa !66
  %113 = load i32, ptr %32, align 4, !tbaa !18
  %114 = load ptr, ptr %31, align 8, !tbaa !31
  %115 = load ptr, ptr %14, align 8, !tbaa !31
  %116 = load i32, ptr %16, align 4, !tbaa !18
  %117 = add nsw i32 %116, 1
  %118 = load ptr, ptr %17, align 8, !tbaa !10
  %119 = load ptr, ptr %18, align 8, !tbaa !10
  %120 = load ptr, ptr %19, align 8, !tbaa !3
  %121 = load ptr, ptr %20, align 8, !tbaa !10
  %122 = call noundef signext i8 @_ZN6icu_77L21ures_enumDependenciesEPKcPK12ResourceDatajS1_S1_iPFvPvS1_S1_ES5_PNS_7PackageEP10UErrorCode(ptr noundef %111, ptr noundef %112, i32 noundef %113, ptr noundef %114, ptr noundef %115, i32 noundef %117, ptr noundef %118, ptr noundef %119, ptr noundef %120, ptr noundef %121)
  %123 = sext i8 %122 to i32
  %124 = load i8, ptr %21, align 1, !tbaa !38
  %125 = sext i8 %124 to i32
  %126 = and i32 %125, %123
  %127 = trunc i32 %126 to i8
  store i8 %127, ptr %21, align 1, !tbaa !38
  %128 = load ptr, ptr %20, align 8, !tbaa !10
  %129 = load i32, ptr %128, align 4, !tbaa !11
  %130 = call noundef signext i8 @_ZL9U_FAILURE10UErrorCode(i32 noundef %129)
  %131 = icmp ne i8 %130, 0
  br i1 %131, label %132, label %140

132:                                              ; preds = %106
  %133 = load ptr, ptr @stderr, align 8, !tbaa !26
  %134 = load ptr, ptr %11, align 8, !tbaa !31
  %135 = load i32, ptr %13, align 4, !tbaa !18
  %136 = load i32, ptr %29, align 4, !tbaa !18
  %137 = load ptr, ptr %31, align 8, !tbaa !31
  %138 = load i32, ptr %32, align 4, !tbaa !18
  %139 = call i32 (ptr, ptr, ...) @fprintf(ptr noundef %133, ptr noundef @.str.11, ptr noundef %134, i32 noundef %135, i32 noundef %136, ptr noundef %137, i32 noundef %138) #11
  store i32 3, ptr %30, align 4
  br label %141

140:                                              ; preds = %106
  store i32 0, ptr %30, align 4
  br label %141

141:                                              ; preds = %140, %132
  call void @llvm.lifetime.end.p0(i64 4, ptr %32) #11
  call void @llvm.lifetime.end.p0(i64 8, ptr %31) #11
  %142 = load i32, ptr %30, align 4
  switch i32 %142, label %147 [
    i32 0, label %143
  ]

143:                                              ; preds = %141
  br label %144

144:                                              ; preds = %143
  %145 = load i32, ptr %29, align 4, !tbaa !18
  %146 = add nsw i32 %145, 1
  store i32 %146, ptr %29, align 4, !tbaa !18
  br label %101, !llvm.loop !70

147:                                              ; preds = %141, %105
  call void @llvm.lifetime.end.p0(i64 4, ptr %29) #11
  br label %148

148:                                              ; preds = %147
  call void @llvm.lifetime.end.p0(i64 4, ptr %28) #11
  br label %195

149:                                              ; preds = %10
  call void @llvm.lifetime.start.p0(i64 4, ptr %33) #11
  %150 = load ptr, ptr %12, align 8, !tbaa !66
  %151 = load i32, ptr %13, align 4, !tbaa !18
  %152 = call i32 @res_countArrayItems_77(ptr noundef %150, i32 noundef %151)
  store i32 %152, ptr %33, align 4, !tbaa !18
  call void @llvm.lifetime.start.p0(i64 4, ptr %34) #11
  store i32 0, ptr %34, align 4, !tbaa !18
  br label %153

153:                                              ; preds = %189, %149
  %154 = load i32, ptr %34, align 4, !tbaa !18
  %155 = load i32, ptr %33, align 4, !tbaa !18
  %156 = icmp slt i32 %154, %155
  br i1 %156, label %158, label %157

157:                                              ; preds = %153
  store i32 6, ptr %30, align 4
  br label %192

158:                                              ; preds = %153
  call void @llvm.lifetime.start.p0(i64 4, ptr %35) #11
  %159 = load ptr, ptr %12, align 8, !tbaa !66
  %160 = load i32, ptr %13, align 4, !tbaa !18
  %161 = load i32, ptr %34, align 4, !tbaa !18
  %162 = call i32 @res_getArrayItem_77(ptr noundef %159, i32 noundef %160, i32 noundef %161)
  store i32 %162, ptr %35, align 4, !tbaa !18
  %163 = load ptr, ptr %11, align 8, !tbaa !31
  %164 = load ptr, ptr %12, align 8, !tbaa !66
  %165 = load i32, ptr %35, align 4, !tbaa !18
  %166 = load ptr, ptr %14, align 8, !tbaa !31
  %167 = load i32, ptr %16, align 4, !tbaa !18
  %168 = add nsw i32 %167, 1
  %169 = load ptr, ptr %17, align 8, !tbaa !10
  %170 = load ptr, ptr %18, align 8, !tbaa !10
  %171 = load ptr, ptr %19, align 8, !tbaa !3
  %172 = load ptr, ptr %20, align 8, !tbaa !10
  %173 = call noundef signext i8 @_ZN6icu_77L21ures_enumDependenciesEPKcPK12ResourceDatajS1_S1_iPFvPvS1_S1_ES5_PNS_7PackageEP10UErrorCode(ptr noundef %163, ptr noundef %164, i32 noundef %165, ptr noundef null, ptr noundef %166, i32 noundef %168, ptr noundef %169, ptr noundef %170, ptr noundef %171, ptr noundef %172)
  %174 = load ptr, ptr %20, align 8, !tbaa !10
  %175 = load i32, ptr %174, align 4, !tbaa !11
  %176 = call noundef signext i8 @_ZL9U_FAILURE10UErrorCode(i32 noundef %175)
  %177 = icmp ne i8 %176, 0
  br i1 %177, label %178, label %185

178:                                              ; preds = %158
  %179 = load ptr, ptr @stderr, align 8, !tbaa !26
  %180 = load ptr, ptr %11, align 8, !tbaa !31
  %181 = load i32, ptr %13, align 4, !tbaa !18
  %182 = load i32, ptr %34, align 4, !tbaa !18
  %183 = load i32, ptr %35, align 4, !tbaa !18
  %184 = call i32 (ptr, ptr, ...) @fprintf(ptr noundef %179, ptr noundef @.str.12, ptr noundef %180, i32 noundef %181, i32 noundef %182, i32 noundef %183) #11
  store i32 6, ptr %30, align 4
  br label %186

185:                                              ; preds = %158
  store i32 0, ptr %30, align 4
  br label %186

186:                                              ; preds = %185, %178
  call void @llvm.lifetime.end.p0(i64 4, ptr %35) #11
  %187 = load i32, ptr %30, align 4
  switch i32 %187, label %192 [
    i32 0, label %188
  ]

188:                                              ; preds = %186
  br label %189

189:                                              ; preds = %188
  %190 = load i32, ptr %34, align 4, !tbaa !18
  %191 = add nsw i32 %190, 1
  store i32 %191, ptr %34, align 4, !tbaa !18
  br label %153, !llvm.loop !71

192:                                              ; preds = %186, %157
  call void @llvm.lifetime.end.p0(i64 4, ptr %34) #11
  br label %193

193:                                              ; preds = %192
  call void @llvm.lifetime.end.p0(i64 4, ptr %33) #11
  br label %195

194:                                              ; preds = %10
  br label %195

195:                                              ; preds = %194, %193, %148, %86, %85
  %196 = load i8, ptr %21, align 1, !tbaa !38
  store i32 1, ptr %30, align 4
  call void @llvm.lifetime.end.p0(i64 1, ptr %21) #11
  ret i8 %196
}