; Function Attrs: mustprogress uwtable
define internal fastcc noundef signext range(i8 0, 2) i8 @_ZN6icu_77L21ures_enumDependenciesEPKcPK12ResourceDatajS1_S1_iPFvPvS1_S1_ES5_PNS_7PackageEP10UErrorCode(ptr noundef %0, ptr noundef nonnull %1, i32 noundef %2, ptr noundef %3, ptr noundef readonly %4, i32 noundef %5, ptr noundef %6, ptr noundef %7, ptr noundef nonnull %8) unnamed_addr #0 {
  %10 = alloca i32, align 4
  %11 = alloca i32, align 4
  %12 = alloca i32, align 4
  %13 = alloca ptr, align 8
  %14 = tail call i32 @res_getPublicType_77(i32 noundef %2)
  switch i32 %14, label %.thread [
    i32 0, label %15
    i32 3, label %36
    i32 2, label %39
    i32 8, label %55
  ]

15:                                               ; preds = %9
  %16 = icmp eq i32 %5, 1
  %17 = icmp ne ptr %3, null
  %or.cond = and i1 %17, %16
  br i1 %or.cond, label %18, label %27

18:                                               ; preds = %15
  %19 = tail call i32 @strcmp(ptr noundef nonnull dereferenceable(1) %3, ptr noundef nonnull dereferenceable(8) @.str.8) #16
  %20 = icmp eq i32 %19, 0
  br i1 %20, label %24, label %21

21:                                               ; preds = %18
  %22 = tail call i32 @strcmp(ptr noundef nonnull dereferenceable(1) %3, ptr noundef nonnull dereferenceable(9) @.str.9) #16
  %23 = icmp eq i32 %22, 0
  br i1 %23, label %24, label %.thread

24:                                               ; preds = %21, %18
  call void @llvm.lifetime.start.p0(i64 4, ptr nonnull %10) #11
  %25 = call ptr @res_getStringNoTrace_77(ptr noundef nonnull %1, i32 noundef %2, ptr noundef nonnull %10)
  %26 = load i32, ptr %10, align 4, !tbaa !15
  call fastcc void @_ZN6icu_77L10checkAliasEPKcjPKDsiaPFvPvS1_S1_ES4_P10UErrorCode(ptr noundef %0, i32 noundef %2, ptr noundef %25, i32 noundef %26, i8 noundef signext 1, ptr noundef %6, ptr noundef %7, ptr noundef %8)
  call void @llvm.lifetime.end.p0(i64 4, ptr nonnull %10) #11
  br label %.thread

27:                                               ; preds = %15
  %28 = icmp eq i32 %5, 2
  %29 = icmp ne ptr %4, null
  %or.cond4 = and i1 %29, %28
  br i1 %or.cond4, label %30, label %.thread

30:                                               ; preds = %27
  %31 = tail call i32 @strcmp(ptr noundef nonnull dereferenceable(1) %4, ptr noundef nonnull dereferenceable(13) @.str.10) #16
  %32 = icmp eq i32 %31, 0
  br i1 %32, label %33, label %.thread

33:                                               ; preds = %30
  call void @llvm.lifetime.start.p0(i64 4, ptr nonnull %11) #11
  %34 = call ptr @res_getStringNoTrace_77(ptr noundef nonnull %1, i32 noundef %2, ptr noundef nonnull %11)
  %35 = load i32, ptr %11, align 4, !tbaa !15
  call fastcc void @_ZN6icu_77L10checkAliasEPKcjPKDsiaPFvPvS1_S1_ES4_P10UErrorCode(ptr noundef %0, i32 noundef %2, ptr noundef %34, i32 noundef %35, i8 noundef signext 0, ptr noundef %6, ptr noundef %7, ptr noundef %8)
  call void @llvm.lifetime.end.p0(i64 4, ptr nonnull %11) #11
  br label %.thread

36:                                               ; preds = %9
  call void @llvm.lifetime.start.p0(i64 4, ptr nonnull %12) #11
  %37 = call ptr @res_getAlias_77(ptr noundef nonnull %1, i32 noundef %2, ptr noundef nonnull %12)
  %38 = load i32, ptr %12, align 4, !tbaa !15
  call fastcc void @_ZN6icu_77L10checkAliasEPKcjPKDsiaPFvPvS1_S1_ES4_P10UErrorCode(ptr noundef %0, i32 noundef %2, ptr noundef %37, i32 noundef %38, i8 noundef signext 1, ptr noundef %6, ptr noundef %7, ptr noundef %8)
  call void @llvm.lifetime.end.p0(i64 4, ptr nonnull %12) #11
  br label %.thread

39:                                               ; preds = %9
  %40 = tail call i32 @res_countArrayItems_77(ptr noundef nonnull %1, i32 noundef %2)
  %41 = icmp sgt i32 %40, 0
  br i1 %41, label %.lr.ph11, label %.thread

.lr.ph11:                                         ; preds = %39
  %42 = add nsw i32 %5, 1
  br label %43

43:                                               ; preds = %.lr.ph11, %.critedge
  %.110 = phi i8 [ 1, %.lr.ph11 ], [ %47, %.critedge ]
  %.0849 = phi i32 [ 0, %.lr.ph11 ], [ %54, %.critedge ]
  call void @llvm.lifetime.start.p0(i64 8, ptr nonnull %13) #11
  %44 = call i32 @res_getTableItemByIndex_77(ptr noundef nonnull %1, i32 noundef %2, i32 noundef %.0849, ptr noundef nonnull %13)
  %45 = load ptr, ptr %13, align 8, !tbaa !46
  %46 = call fastcc noundef signext i8 @_ZN6icu_77L21ures_enumDependenciesEPKcPK12ResourceDatajS1_S1_iPFvPvS1_S1_ES5_PNS_7PackageEP10UErrorCode(ptr noundef %0, ptr noundef %1, i32 noundef %44, ptr noundef %45, ptr noundef %3, i32 noundef %42, ptr noundef %6, ptr noundef %7, ptr noundef %8)
  %47 = and i8 %46, %.110
  %48 = load i32, ptr %8, align 4, !tbaa !3
  %49 = icmp slt i32 %48, 1
  br i1 %49, label %.critedge, label %50

50:                                               ; preds = %43
  %51 = load ptr, ptr @stderr, align 8, !tbaa !20
  %52 = load ptr, ptr %13, align 8, !tbaa !46
  %53 = call i32 (ptr, ptr, ...) @fprintf(ptr noundef %51, ptr noundef nonnull @.str.11, ptr noundef %0, i32 noundef %2, i32 noundef %.0849, ptr noundef %52, i32 noundef %44) #13
  call void @llvm.lifetime.end.p0(i64 8, ptr nonnull %13) #11
  br label %.thread

.critedge:                                        ; preds = %43
  call void @llvm.lifetime.end.p0(i64 8, ptr nonnull %13) #11
  %54 = add nuw nsw i32 %.0849, 1
  %exitcond20.not = icmp eq i32 %54, %40
  br i1 %exitcond20.not, label %.thread, label %43, !llvm.loop !47

55:                                               ; preds = %9
  %56 = tail call i32 @res_countArrayItems_77(ptr noundef nonnull %1, i32 noundef %2)
  %57 = icmp sgt i32 %56, 0
  br i1 %57, label %.lr.ph, label %.thread

.lr.ph:                                           ; preds = %55
  %58 = add nsw i32 %5, 1
  br label %59

59:                                               ; preds = %.lr.ph, %.critedge91
  %.0838 = phi i32 [ 0, %.lr.ph ], [ %67, %.critedge91 ]
  %60 = tail call i32 @res_getArrayItem_77(ptr noundef nonnull %1, i32 noundef %2, i32 noundef %.0838)
  %61 = tail call fastcc noundef signext i8 @_ZN6icu_77L21ures_enumDependenciesEPKcPK12ResourceDatajS1_S1_iPFvPvS1_S1_ES5_PNS_7PackageEP10UErrorCode(ptr noundef %0, ptr noundef %1, i32 noundef %60, ptr noundef null, ptr noundef %3, i32 noundef %58, ptr noundef %6, ptr noundef %7, ptr noundef %8)
  %62 = load i32, ptr %8, align 4, !tbaa !3
  %63 = icmp slt i32 %62, 1
  br i1 %63, label %.critedge91, label %64

64:                                               ; preds = %59
  %65 = load ptr, ptr @stderr, align 8, !tbaa !20
  %66 = tail call i32 (ptr, ptr, ...) @fprintf(ptr noundef %65, ptr noundef nonnull @.str.12, ptr noundef %0, i32 noundef %2, i32 noundef %.0838, i32 noundef %60) #13
  br label %.thread

.critedge91:                                      ; preds = %59
  %67 = add nuw nsw i32 %.0838, 1
  %exitcond.not = icmp eq i32 %67, %56
  br i1 %exitcond.not, label %.thread, label %59, !llvm.loop !48

.thread:                                          ; preds = %.critedge91, %.critedge, %55, %39, %21, %64, %50, %9, %24, %33, %30, %27, %36
  %.0 = phi i8 [ 1, %9 ], [ 1, %36 ], [ 0, %24 ], [ 1, %33 ], [ 1, %30 ], [ 1, %27 ], [ %47, %50 ], [ 1, %64 ], [ 1, %21 ], [ 1, %39 ], [ 1, %55 ], [ %47, %.critedge ], [ 1, %.critedge91 ]
  ret i8 %.0
}